; Function Attrs: mustprogress uwtable
define void @_ZN8QuantLib12NotionalPath5resetEv(ptr noundef nonnull align 8 dereferenceable(24) %this) local_unnamed_addr #0 align 2 personality ptr @__gxx_personality_v0 {
entry:
  %_M_finish.i.i = getelementptr inbounds nuw i8, ptr %this, i64 8
  %0 = load ptr, ptr %_M_finish.i.i, align 8, !tbaa !15
  %1 = load ptr, ptr %this, align 8, !tbaa !22
  %sub.ptr.lhs.cast.i.i = ptrtoint ptr %0 to i64
  %sub.ptr.rhs.cast.i.i = ptrtoint ptr %1 to i64
  %sub.ptr.sub.i.i = sub i64 %sub.ptr.lhs.cast.i.i, %sub.ptr.rhs.cast.i.i
  %sub.ptr.div.i.i = ashr exact i64 %sub.ptr.sub.i.i, 4
  %cmp.i = icmp eq ptr %0, %1
  br i1 %cmp.i, label %if.then.i, label %if.else.i

if.then.i:                                        ; preds = %entry
  %sub.i = sub nuw nsw i64 1, %sub.ptr.div.i.i
  tail call void @_ZNSt6vectorISt4pairIN8QuantLib4DateEdESaIS3_EE17_M_default_appendEm(ptr noundef nonnull align 8 dereferenceable(24) %this, i64 noundef %sub.i)
  br label %_ZNSt6vectorISt4pairIN8QuantLib4DateEdESaIS3_EE6resizeEm.exit

if.else.i:                                        ; preds = %entry
  %cmp4.i = icmp ugt i64 %sub.ptr.div.i.i, 1
  br i1 %cmp4.i, label %if.then5.i, label %_ZNSt6vectorISt4pairIN8QuantLib4DateEdESaIS3_EE6resizeEm.exit

if.then5.i:                                       ; preds = %if.else.i
  %add.ptr.i = getelementptr inbounds nuw i8, ptr %1, i64 16
  %tobool.not.i.i = icmp eq ptr %0, %add.ptr.i
  br i1 %tobool.not.i.i, label %_ZNSt6vectorISt4pairIN8QuantLib4DateEdESaIS3_EE6resizeEm.exit, label %invoke.cont.i.i

invoke.cont.i.i:                                  ; preds = %if.then5.i
  store ptr %add.ptr.i, ptr %_M_finish.i.i, align 8, !tbaa !15
  br label %_ZNSt6vectorISt4pairIN8QuantLib4DateEdESaIS3_EE6resizeEm.exit

_ZNSt6vectorISt4pairIN8QuantLib4DateEdESaIS3_EE6resizeEm.exit: ; preds = %if.then.i, %if.else.i, %if.then5.i, %invoke.cont.i.i
  ret void
}